target datalayout = "e-m:e-p270:32:32-p271:32:32-p272:64:64-i64:64-i128:128-f80:128-n8:16:32:64-S128"
target triple = "x86_64-pc-linux-gnu"

%struct.evp_cipher_ctx_st = type { ptr, ptr, i32, i32, [16 x i8], [16 x i8], [32 x i8], i32, ptr, i32, i32, i64, ptr, i32, i32, [32 x i8], i64, ptr, ptr }
%struct.evp_cipher_st = type { i32, i32, i32, i32, i64, i32, ptr, ptr, ptr, i32, ptr, ptr, ptr, ptr, i32, ptr, ptr, ptr, %struct.CRYPTO_REF_COUNT, ptr, ptr, ptr, ptr, ptr, ptr, ptr, ptr, ptr, ptr, ptr, ptr, ptr, ptr, ptr, ptr, ptr, ptr, ptr, ptr }
%struct.CRYPTO_REF_COUNT = type { i32 }

@.str = private unnamed_addr constant [32 x i8] c"../openssl/crypto/evp/evp_enc.c\00", align 1
@__func__.EVP_CIPHER_CTX_copy = private unnamed_addr constant [20 x i8] c"EVP_CIPHER_CTX_copy\00", align 1

; Function Attrs: inlinehint nounwind uwtable
define internal i32 @CRYPTO_UP_REF(ptr noundef %0, ptr noundef %1) #6 {
  %3 = alloca ptr, align 8
  %4 = alloca ptr, align 8
  %5 = alloca i32, align 4
  %6 = alloca i32, align 4
  store ptr %0, ptr %3, align 8, !tbaa !81
  store ptr %1, ptr %4, align 8, !tbaa !66
  %7 = load ptr, ptr %3, align 8, !tbaa !81
  %8 = getelementptr inbounds nuw %struct.CRYPTO_REF_COUNT, ptr %7, i32 0, i32 0
  store i32 1, ptr %5, align 4, !tbaa !29
  %9 = load i32, ptr %5, align 4
  %10 = atomicrmw add ptr %8, i32 %9 monotonic, align 4
  store i32 %10, ptr %6, align 4
  %11 = load i32, ptr %6, align 4, !tbaa !29
  %12 = add nsw i32 %11, 1
  %13 = load ptr, ptr %4, align 8, !tbaa !66
  store i32 %12, ptr %13, align 4, !tbaa !29
  ret i32 1
}

; Function Attrs: nounwind uwtable
define i32 @EVP_CIPHER_up_ref(ptr noundef %0) #0 {
  %2 = alloca ptr, align 8
  %3 = alloca i32, align 4
  store ptr %0, ptr %2, align 8, !tbaa !27
  call void @llvm.lifetime.start.p0(i64 4, ptr %3) #9
  store i32 0, ptr %3, align 4, !tbaa !29
  %4 = load ptr, ptr %2, align 8, !tbaa !27
  %5 = getelementptr inbounds nuw %struct.evp_cipher_st, ptr %4, i32 0, i32 5
  %6 = load i32, ptr %5, align 8, !tbaa !28
  %7 = icmp eq i32 %6, 0
  br i1 %7, label %8, label %12

8:                                                ; preds = %1
  %9 = load ptr, ptr %2, align 8, !tbaa !27
  %10 = getelementptr inbounds nuw %struct.evp_cipher_st, ptr %9, i32 0, i32 18
  %11 = call i32 @CRYPTO_UP_REF(ptr noundef %10, ptr noundef %3)
  br label %12

12:                                               ; preds = %8, %1
  call void @llvm.lifetime.end.p0(i64 4, ptr %3) #9
  ret i32 1
}

; Function Attrs: nounwind uwtable
define i32 @EVP_CIPHER_CTX_copy(ptr noundef %0, ptr noundef %1) #0 {
  %3 = alloca i32, align 4
  %4 = alloca ptr, align 8
  %5 = alloca ptr, align 8
  store ptr %0, ptr %4, align 8, !tbaa !3
  store ptr %1, ptr %5, align 8, !tbaa !3
  %6 = load ptr, ptr %5, align 8, !tbaa !3
  %7 = icmp eq ptr %6, null
  br i1 %7, label %13, label %8

8:                                                ; preds = %2
  %9 = load ptr, ptr %5, align 8, !tbaa !3
  %10 = getelementptr inbounds nuw %struct.evp_cipher_ctx_st, ptr %9, i32 0, i32 0
  %11 = load ptr, ptr %10, align 8, !tbaa !8
  %12 = icmp eq ptr %11, null
  br i1 %12, label %13, label %14

13:                                               ; preds = %8, %2
  call void @ERR_new()
  call void @ERR_set_debug(ptr noundef @.str, i32 noundef 1772, ptr noundef @__func__.EVP_CIPHER_CTX_copy)
  call void (i32, i32, ptr, ...) @ERR_set_error(i32 noundef 6, i32 noundef 111, ptr noundef null)
  store i32 0, ptr %3, align 4
  br label %149

14:                                               ; preds = %8
  %15 = load ptr, ptr %5, align 8, !tbaa !3
  %16 = getelementptr inbounds nuw %struct.evp_cipher_ctx_st, ptr %15, i32 0, i32 0
  %17 = load ptr, ptr %16, align 8, !tbaa !8
  %18 = getelementptr inbounds nuw %struct.evp_cipher_st, ptr %17, i32 0, i32 17
  %19 = load ptr, ptr %18, align 8, !tbaa !14
  %20 = icmp eq ptr %19, null
  br i1 %20, label %21, label %22

21:                                               ; preds = %14
  br label %68

22:                                               ; preds = %14
  %23 = load ptr, ptr %5, align 8, !tbaa !3
  %24 = getelementptr inbounds nuw %struct.evp_cipher_ctx_st, ptr %23, i32 0, i32 0
  %25 = load ptr, ptr %24, align 8, !tbaa !8
  %26 = getelementptr inbounds nuw %struct.evp_cipher_st, ptr %25, i32 0, i32 30
  %27 = load ptr, ptr %26, align 8, !tbaa !97
  %28 = icmp eq ptr %27, null
  br i1 %28, label %29, label %30

29:                                               ; preds = %22
  call void @ERR_new()
  call void @ERR_set_debug(ptr noundef @.str, i32 noundef 1780, ptr noundef @__func__.EVP_CIPHER_CTX_copy)
  call void (i32, i32, ptr, ...) @ERR_set_error(i32 noundef 6, i32 noundef 190, ptr noundef null)
  store i32 0, ptr %3, align 4
  br label %149

30:                                               ; preds = %22
  %31 = load ptr, ptr %4, align 8, !tbaa !3
  %32 = call i32 @EVP_CIPHER_CTX_reset(ptr noundef %31)
  %33 = load ptr, ptr %4, align 8, !tbaa !3
  %34 = load ptr, ptr %5, align 8, !tbaa !3
  call void @llvm.memcpy.p0.p0.i64(ptr align 8 %33, ptr align 8 %34, i64 192, i1 false), !tbaa.struct !98
  %35 = load ptr, ptr %4, align 8, !tbaa !3
  %36 = getelementptr inbounds nuw %struct.evp_cipher_ctx_st, ptr %35, i32 0, i32 17
  store ptr null, ptr %36, align 8, !tbaa !19
  %37 = load ptr, ptr %5, align 8, !tbaa !3
  %38 = getelementptr inbounds nuw %struct.evp_cipher_ctx_st, ptr %37, i32 0, i32 18
  %39 = load ptr, ptr %38, align 8, !tbaa !21
  %40 = icmp ne ptr %39, null
  br i1 %40, label %41, label %50

41:                                               ; preds = %30
  %42 = load ptr, ptr %5, align 8, !tbaa !3
  %43 = getelementptr inbounds nuw %struct.evp_cipher_ctx_st, ptr %42, i32 0, i32 18
  %44 = load ptr, ptr %43, align 8, !tbaa !21
  %45 = call i32 @EVP_CIPHER_up_ref(ptr noundef %44)
  %46 = icmp ne i32 %45, 0
  br i1 %46, label %50, label %47

47:                                               ; preds = %41
  %48 = load ptr, ptr %4, align 8, !tbaa !3
  %49 = getelementptr inbounds nuw %struct.evp_cipher_ctx_st, ptr %48, i32 0, i32 18
  store ptr null, ptr %49, align 8, !tbaa !21
  store i32 0, ptr %3, align 4
  br label %149

50:                                               ; preds = %41, %30
  %51 = load ptr, ptr %5, align 8, !tbaa !3
  %52 = getelementptr inbounds nuw %struct.evp_cipher_ctx_st, ptr %51, i32 0, i32 0
  %53 = load ptr, ptr %52, align 8, !tbaa !8
  %54 = getelementptr inbounds nuw %struct.evp_cipher_st, ptr %53, i32 0, i32 30
  %55 = load ptr, ptr %54, align 8, !tbaa !97
  %56 = load ptr, ptr %5, align 8, !tbaa !3
  %57 = getelementptr inbounds nuw %struct.evp_cipher_ctx_st, ptr %56, i32 0, i32 17
  %58 = load ptr, ptr %57, align 8, !tbaa !19
  %59 = call ptr %55(ptr noundef %58)
  %60 = load ptr, ptr %4, align 8, !tbaa !3
  %61 = getelementptr inbounds nuw %struct.evp_cipher_ctx_st, ptr %60, i32 0, i32 17
  store ptr %59, ptr %61, align 8, !tbaa !19
  %62 = load ptr, ptr %4, align 8, !tbaa !3
  %63 = getelementptr inbounds nuw %struct.evp_cipher_ctx_st, ptr %62, i32 0, i32 17
  %64 = load ptr, ptr %63, align 8, !tbaa !19
  %65 = icmp eq ptr %64, null
  br i1 %65, label %66, label %67

66:                                               ; preds = %50
  call void @ERR_new()
  call void @ERR_set_debug(ptr noundef @.str, i32 noundef 1796, ptr noundef @__func__.EVP_CIPHER_CTX_copy)
  call void (i32, i32, ptr, ...) @ERR_set_error(i32 noundef 6, i32 noundef 190, ptr noundef null)
  store i32 0, ptr %3, align 4
  br label %149

67:                                               ; preds = %50
  store i32 1, ptr %3, align 4
  br label %149

68:                                               ; preds = %21
  %69 = load ptr, ptr %5, align 8, !tbaa !3
  %70 = getelementptr inbounds nuw %struct.evp_cipher_ctx_st, ptr %69, i32 0, i32 1
  %71 = load ptr, ptr %70, align 8, !tbaa !26
  %72 = icmp ne ptr %71, null
  br i1 %72, label %73, label %80

73:                                               ; preds = %68
  %74 = load ptr, ptr %5, align 8, !tbaa !3
  %75 = getelementptr inbounds nuw %struct.evp_cipher_ctx_st, ptr %74, i32 0, i32 1
  %76 = load ptr, ptr %75, align 8, !tbaa !26
  %77 = call i32 @ENGINE_init(ptr noundef %76)
  %78 = icmp ne i32 %77, 0
  br i1 %78, label %80, label %79

79:                                               ; preds = %73
  call void @ERR_new()
  call void @ERR_set_debug(ptr noundef @.str, i32 noundef 1808, ptr noundef @__func__.EVP_CIPHER_CTX_copy)
  call void (i32, i32, ptr, ...) @ERR_set_error(i32 noundef 6, i32 noundef 524326, ptr noundef null)
  store i32 0, ptr %3, align 4
  br label %149

80:                                               ; preds = %73, %68
  %81 = load ptr, ptr %4, align 8, !tbaa !3
  %82 = call i32 @EVP_CIPHER_CTX_reset(ptr noundef %81)
  %83 = load ptr, ptr %4, align 8, !tbaa !3
  %84 = load ptr, ptr %5, align 8, !tbaa !3
  call void @llvm.memcpy.p0.p0.i64(ptr align 8 %83, ptr align 8 %84, i64 192, i1 false)
  %85 = load ptr, ptr %5, align 8, !tbaa !3
  %86 = getelementptr inbounds nuw %struct.evp_cipher_ctx_st, ptr %85, i32 0, i32 12
  %87 = load ptr, ptr %86, align 8, !tbaa !24
  %88 = icmp ne ptr %87, null
  br i1 %88, label %89, label %126

89:                                               ; preds = %80
  %90 = load ptr, ptr %5, align 8, !tbaa !3
  %91 = getelementptr inbounds nuw %struct.evp_cipher_ctx_st, ptr %90, i32 0, i32 0
  %92 = load ptr, ptr %91, align 8, !tbaa !8
  %93 = getelementptr inbounds nuw %struct.evp_cipher_st, ptr %92, i32 0, i32 9
  %94 = load i32, ptr %93, align 8, !tbaa !25
  %95 = icmp ne i32 %94, 0
  br i1 %95, label %96, label %126

96:                                               ; preds = %89
  %97 = load ptr, ptr %5, align 8, !tbaa !3
  %98 = getelementptr inbounds nuw %struct.evp_cipher_ctx_st, ptr %97, i32 0, i32 0
  %99 = load ptr, ptr %98, align 8, !tbaa !8
  %100 = getelementptr inbounds nuw %struct.evp_cipher_st, ptr %99, i32 0, i32 9
  %101 = load i32, ptr %100, align 8, !tbaa !25
  %102 = sext i32 %101 to i64
  %103 = call noalias ptr @CRYPTO_malloc(i64 noundef %102, ptr noundef @.str, i32 noundef 1817)
  %104 = load ptr, ptr %4, align 8, !tbaa !3
  %105 = getelementptr inbounds nuw %struct.evp_cipher_ctx_st, ptr %104, i32 0, i32 12
  store ptr %103, ptr %105, align 8, !tbaa !24
  %106 = load ptr, ptr %4, align 8, !tbaa !3
  %107 = getelementptr inbounds nuw %struct.evp_cipher_ctx_st, ptr %106, i32 0, i32 12
  %108 = load ptr, ptr %107, align 8, !tbaa !24
  %109 = icmp eq ptr %108, null
  br i1 %109, label %110, label %113

110:                                              ; preds = %96
  %111 = load ptr, ptr %4, align 8, !tbaa !3
  %112 = getelementptr inbounds nuw %struct.evp_cipher_ctx_st, ptr %111, i32 0, i32 0
  store ptr null, ptr %112, align 8, !tbaa !8
  store i32 0, ptr %3, align 4
  br label %149

113:                                              ; preds = %96
  %114 = load ptr, ptr %4, align 8, !tbaa !3
  %115 = getelementptr inbounds nuw %struct.evp_cipher_ctx_st, ptr %114, i32 0, i32 12
  %116 = load ptr, ptr %115, align 8, !tbaa !24
  %117 = load ptr, ptr %5, align 8, !tbaa !3
  %118 = getelementptr inbounds nuw %struct.evp_cipher_ctx_st, ptr %117, i32 0, i32 12
  %119 = load ptr, ptr %118, align 8, !tbaa !24
  %120 = load ptr, ptr %5, align 8, !tbaa !3
  %121 = getelementptr inbounds nuw %struct.evp_cipher_ctx_st, ptr %120, i32 0, i32 0
  %122 = load ptr, ptr %121, align 8, !tbaa !8
  %123 = getelementptr inbounds nuw %struct.evp_cipher_st, ptr %122, i32 0, i32 9
  %124 = load i32, ptr %123, align 8, !tbaa !25
  %125 = sext i32 %124 to i64
  call void @llvm.memcpy.p0.p0.i64(ptr align 1 %116, ptr align 1 %119, i64 %125, i1 false)
  br label %126

126:                                              ; preds = %113, %89, %80
  %127 = load ptr, ptr %5, align 8, !tbaa !3
  %128 = getelementptr inbounds nuw %struct.evp_cipher_ctx_st, ptr %127, i32 0, i32 0
  %129 = load ptr, ptr %128, align 8, !tbaa !8
  %130 = getelementptr inbounds nuw %struct.evp_cipher_st, ptr %129, i32 0, i32 4
  %131 = load i64, ptr %130, align 8, !tbaa !54
  %132 = and i64 %131, 1024
  %133 = icmp ne i64 %132, 0
  br i1 %133, label %134, label %148

134:                                              ; preds = %126
  %135 = load ptr, ptr %5, align 8, !tbaa !3
  %136 = getelementptr inbounds nuw %struct.evp_cipher_ctx_st, ptr %135, i32 0, i32 0
  %137 = load ptr, ptr %136, align 8, !tbaa !8
  %138 = getelementptr inbounds nuw %struct.evp_cipher_st, ptr %137, i32 0, i32 12
  %139 = load ptr, ptr %138, align 8, !tbaa !88
  %140 = load ptr, ptr %5, align 8, !tbaa !3
  %141 = load ptr, ptr %4, align 8, !tbaa !3
  %142 = call i32 %139(ptr noundef %140, i32 noundef 8, i32 noundef 0, ptr noundef %141)
  %143 = icmp ne i32 %142, 0
  br i1 %143, label %147, label %144

144:                                              ; preds = %134
  %145 = load ptr, ptr %4, align 8, !tbaa !3
  %146 = getelementptr inbounds nuw %struct.evp_cipher_ctx_st, ptr %145, i32 0, i32 0
  store ptr null, ptr %146, align 8, !tbaa !8
  call void @ERR_new()
  call void @ERR_set_debug(ptr noundef @.str, i32 noundef 1828, ptr noundef @__func__.EVP_CIPHER_CTX_copy)
  call void (i32, i32, ptr, ...) @ERR_set_error(i32 noundef 6, i32 noundef 134, ptr noundef null)
  store i32 0, ptr %3, align 4
  br label %149

147:                                              ; preds = %134
  br label %148

148:                                              ; preds = %147, %126
  store i32 1, ptr %3, align 4
  br label %149

149:                                              ; preds = %148, %144, %110, %79, %67, %66, %47, %29, %13
  %150 = load i32, ptr %3, align 4
  ret i32 %150
}