; Function Attrs: nounwind uwtable
define range(i32 0, 2) i32 @EVP_CIPHER_CTX_copy(ptr noundef %0, ptr noundef %1) local_unnamed_addr #0 {
  %3 = icmp eq ptr %1, null
  br i1 %3, label %7, label %4

4:                                                ; preds = %2
  %5 = load ptr, ptr %1, align 8, !tbaa !3
  %6 = icmp eq ptr %5, null
  br i1 %6, label %7, label %8

7:                                                ; preds = %4, %2
  tail call void @ERR_new() #10
  tail call void @ERR_set_debug(ptr noundef nonnull @.str, i32 noundef 1772, ptr noundef nonnull @__func__.EVP_CIPHER_CTX_copy) #10
  tail call void (i32, i32, ptr, ...) @ERR_set_error(i32 noundef 6, i32 noundef 111, ptr noundef null) #10
  br label %72

8:                                                ; preds = %4
  %9 = getelementptr inbounds nuw i8, ptr %5, i64 120
  %10 = load ptr, ptr %9, align 8, !tbaa !12
  %11 = icmp eq ptr %10, null
  br i1 %11, label %37, label %12

12:                                               ; preds = %8
  %13 = getelementptr inbounds nuw i8, ptr %5, i64 224
  %14 = load ptr, ptr %13, align 8, !tbaa !84
  %15 = icmp eq ptr %14, null
  br i1 %15, label %16, label %17

16:                                               ; preds = %12
  tail call void @ERR_new() #10
  tail call void @ERR_set_debug(ptr noundef nonnull @.str, i32 noundef 1780, ptr noundef nonnull @__func__.EVP_CIPHER_CTX_copy) #10
  tail call void (i32, i32, ptr, ...) @ERR_set_error(i32 noundef 6, i32 noundef 190, ptr noundef null) #10
  br label %72

17:                                               ; preds = %12
  %18 = tail call i32 @EVP_CIPHER_CTX_reset(ptr noundef %0)
  tail call void @llvm.memcpy.p0.p0.i64(ptr noundef nonnull align 8 dereferenceable(192) %0, ptr noundef nonnull align 8 dereferenceable(192) %1, i64 192, i1 false), !tbaa.struct !85
  %19 = getelementptr inbounds nuw i8, ptr %0, i64 176
  store ptr null, ptr %19, align 8, !tbaa !17
  %20 = getelementptr inbounds nuw i8, ptr %1, i64 184
  %21 = load ptr, ptr %20, align 8, !tbaa !19
  %.not = icmp eq ptr %21, null
  br i1 %.not, label %EVP_CIPHER_up_ref.exit, label %22

22:                                               ; preds = %17
  %23 = getelementptr inbounds nuw i8, ptr %21, i64 24
  %24 = load i32, ptr %23, align 8, !tbaa !20
  %25 = icmp eq i32 %24, 0
  br i1 %25, label %26, label %EVP_CIPHER_up_ref.exit

26:                                               ; preds = %22
  %27 = getelementptr inbounds nuw i8, ptr %21, i64 128
  %28 = atomicrmw add ptr %27, i32 1 monotonic, align 4
  br label %EVP_CIPHER_up_ref.exit

EVP_CIPHER_up_ref.exit:                           ; preds = %26, %22, %17
  %29 = load ptr, ptr %1, align 8, !tbaa !3
  %30 = getelementptr inbounds nuw i8, ptr %29, i64 224
  %31 = load ptr, ptr %30, align 8, !tbaa !84
  %32 = getelementptr inbounds nuw i8, ptr %1, i64 176
  %33 = load ptr, ptr %32, align 8, !tbaa !17
  %34 = tail call ptr %31(ptr noundef %33) #10
  store ptr %34, ptr %19, align 8, !tbaa !17
  %35 = icmp eq ptr %34, null
  br i1 %35, label %36, label %72

36:                                               ; preds = %EVP_CIPHER_up_ref.exit
  tail call void @ERR_new() #10
  tail call void @ERR_set_debug(ptr noundef nonnull @.str, i32 noundef 1796, ptr noundef nonnull @__func__.EVP_CIPHER_CTX_copy) #10
  tail call void (i32, i32, ptr, ...) @ERR_set_error(i32 noundef 6, i32 noundef 190, ptr noundef null) #10
  br label %72

37:                                               ; preds = %8
  %38 = getelementptr inbounds nuw i8, ptr %1, i64 8
  %39 = load ptr, ptr %38, align 8, !tbaa !25
  %.not40 = icmp eq ptr %39, null
  br i1 %.not40, label %43, label %40

40:                                               ; preds = %37
  %41 = tail call i32 @ENGINE_init(ptr noundef nonnull %39) #10
  %.not41 = icmp eq i32 %41, 0
  br i1 %.not41, label %42, label %43

42:                                               ; preds = %40
  tail call void @ERR_new() #10
  tail call void @ERR_set_debug(ptr noundef nonnull @.str, i32 noundef 1808, ptr noundef nonnull @__func__.EVP_CIPHER_CTX_copy) #10
  tail call void (i32, i32, ptr, ...) @ERR_set_error(i32 noundef 6, i32 noundef 524326, ptr noundef null) #10
  br label %72

43:                                               ; preds = %40, %37
  %44 = tail call i32 @EVP_CIPHER_CTX_reset(ptr noundef %0)
  tail call void @llvm.memcpy.p0.p0.i64(ptr noundef nonnull align 8 dereferenceable(192) %0, ptr noundef nonnull align 8 dereferenceable(192) %1, i64 192, i1 false)
  %45 = getelementptr inbounds nuw i8, ptr %1, i64 120
  %46 = load ptr, ptr %45, align 8, !tbaa !23
  %.not42 = icmp eq ptr %46, null
  %.pre = load ptr, ptr %1, align 8, !tbaa !3
  br i1 %.not42, label %62, label %47

47:                                               ; preds = %43
  %48 = getelementptr inbounds nuw i8, ptr %.pre, i64 56
  %49 = load i32, ptr %48, align 8, !tbaa !24
  %.not43 = icmp eq i32 %49, 0
  br i1 %.not43, label %62, label %50

50:                                               ; preds = %47
  %51 = sext i32 %49 to i64
  %52 = tail call noalias ptr @CRYPTO_malloc(i64 noundef %51, ptr noundef nonnull @.str, i32 noundef 1817) #10
  %53 = getelementptr inbounds nuw i8, ptr %0, i64 120
  store ptr %52, ptr %53, align 8, !tbaa !23
  %54 = icmp eq ptr %52, null
  br i1 %54, label %55, label %56

55:                                               ; preds = %50
  store ptr null, ptr %0, align 8, !tbaa !3
  br label %72

56:                                               ; preds = %50
  %57 = load ptr, ptr %45, align 8, !tbaa !23
  %58 = load ptr, ptr %1, align 8, !tbaa !3
  %59 = getelementptr inbounds nuw i8, ptr %58, i64 56
  %60 = load i32, ptr %59, align 8, !tbaa !24
  %61 = sext i32 %60 to i64
  tail call void @llvm.memcpy.p0.p0.i64(ptr nonnull align 1 %52, ptr align 1 %57, i64 %61, i1 false)
  br label %62

62:                                               ; preds = %56, %47, %43
  %63 = phi ptr [ %58, %56 ], [ %.pre, %47 ], [ %.pre, %43 ]
  %64 = getelementptr inbounds nuw i8, ptr %63, i64 16
  %65 = load i64, ptr %64, align 8, !tbaa !53
  %66 = and i64 %65, 1024
  %.not44 = icmp eq i64 %66, 0
  br i1 %.not44, label %72, label %67

67:                                               ; preds = %62
  %68 = getelementptr inbounds nuw i8, ptr %63, i64 80
  %69 = load ptr, ptr %68, align 8, !tbaa !79
  %70 = tail call i32 %69(ptr noundef nonnull %1, i32 noundef 8, i32 noundef 0, ptr noundef nonnull %0) #10
  %.not45 = icmp eq i32 %70, 0
  br i1 %.not45, label %71, label %72

71:                                               ; preds = %67
  store ptr null, ptr %0, align 8, !tbaa !3
  tail call void @ERR_new() #10
  tail call void @ERR_set_debug(ptr noundef nonnull @.str, i32 noundef 1828, ptr noundef nonnull @__func__.EVP_CIPHER_CTX_copy) #10
  tail call void (i32, i32, ptr, ...) @ERR_set_error(i32 noundef 6, i32 noundef 134, ptr noundef null) #10
  br label %72

72:                                               ; preds = %62, %67, %EVP_CIPHER_up_ref.exit, %71, %55, %42, %36, %16, %7
  %.0 = phi i32 [ 0, %7 ], [ 0, %55 ], [ 0, %71 ], [ 0, %42 ], [ 0, %16 ], [ 0, %36 ], [ 1, %EVP_CIPHER_up_ref.exit ], [ 1, %67 ], [ 1, %62 ]
  ret i32 %.0
}